target datalayout = "e-m:e-p270:32:32-p271:32:32-p272:64:64-i64:64-i128:128-f80:128-n8:16:32:64-S128"
target triple = "x86_64-pc-linux-gnu"

%"class.lean::name" = type { %"class.lean::object_ref" }
%"class.lean::object_ref" = type { ptr }
%"class.lean::expr" = type { %"class.lean::object_ref" }
%"class.lean::to_lcnf_fn" = type <{ %"class.lean::elab_environment", %"class.lean::type_checker::state", %"class.lean::local_ctx", %"class.lean::rb_map", %"class.lean::buffer", %"class.lean::name", i32, [4 x i8] }>
%"class.lean::elab_environment" = type { %"class.lean::object_ref" }
%"class.lean::type_checker::state" = type { %"class.lean::environment", %"class.lean::name_generator", [2 x %"class.std::unordered_map"], %"class.std::unordered_map", %"class.std::unordered_map", %"class.lean::equiv_manager", %"class.std::unordered_set" }
%"class.lean::environment" = type { %"class.lean::object_ref" }
%"class.lean::name_generator" = type <{ %"class.lean::name", i32, [4 x i8] }>
%"class.std::unordered_map" = type { %"class.std::_Hashtable" }
%"class.std::_Hashtable" = type { ptr, i64, %"struct.std::__detail::_Hash_node_base", i64, %"struct.std::__detail::_Prime_rehash_policy", ptr }
%"struct.std::__detail::_Hash_node_base" = type { ptr }
%"struct.std::__detail::_Prime_rehash_policy" = type { float, i64 }
%"class.lean::equiv_manager" = type <{ %"class.std::vector", %"class.std::unordered_map.5", i8, [7 x i8] }>
%"class.std::vector" = type { %"struct.std::_Vector_base" }
%"struct.std::_Vector_base" = type { %"struct.std::_Vector_base<lean::equiv_manager::node, std::allocator<lean::equiv_manager::node>>::_Vector_impl" }
%"struct.std::_Vector_base<lean::equiv_manager::node, std::allocator<lean::equiv_manager::node>>::_Vector_impl" = type { %"struct.std::_Vector_base<lean::equiv_manager::node, std::allocator<lean::equiv_manager::node>>::_Vector_impl_data" }
%"struct.std::_Vector_base<lean::equiv_manager::node, std::allocator<lean::equiv_manager::node>>::_Vector_impl_data" = type { ptr, ptr, ptr }
%"class.std::unordered_map.5" = type { %"class.std::_Hashtable.6" }
%"class.std::_Hashtable.6" = type { ptr, i64, %"struct.std::__detail::_Hash_node_base", i64, %"struct.std::__detail::_Prime_rehash_policy", ptr }
%"class.std::unordered_set" = type { %"class.std::_Hashtable.19" }
%"class.std::_Hashtable.19" = type { ptr, i64, %"struct.std::__detail::_Hash_node_base", i64, %"struct.std::__detail::_Prime_rehash_policy", ptr }
%"class.lean::local_ctx" = type { %"class.lean::object_ref" }
%"class.lean::rb_map" = type { %"class.lean::rb_tree" }
%"class.lean::rb_tree" = type { %"struct.lean::rb_tree<std::pair<lean::(anonymous namespace)::cache_key, lean::expr>, lean::rb_map<lean::(anonymous namespace)::cache_key, lean::expr, lean::(anonymous namespace)::cache_key_cmp>::entry_cmp>::node" }
%"struct.lean::rb_tree<std::pair<lean::(anonymous namespace)::cache_key, lean::expr>, lean::rb_map<lean::(anonymous namespace)::cache_key, lean::expr, lean::(anonymous namespace)::cache_key_cmp>::entry_cmp>::node" = type { ptr }
%"class.lean::buffer" = type { ptr, i64, i64, [128 x i8] }

; Function Attrs: mustprogress uwtable
define hidden void @_ZN4lean12to_lcnf_coreERKNS_16elab_environmentERKNS_9local_ctxERKNS_4exprE(ptr dead_on_unwind noalias writable sret(%"class.lean::expr") align 8 %0, ptr noundef nonnull align 8 dereferenceable(8) %1, ptr noundef nonnull align 8 dereferenceable(8) %2, ptr noundef nonnull align 8 dereferenceable(8) %3) #0 personality ptr @__gxx_personality_v0 {
  %5 = alloca ptr, align 8
  %6 = alloca ptr, align 8
  %7 = alloca ptr, align 8
  %8 = alloca ptr, align 8
  %9 = alloca %"class.lean::expr", align 8
  %10 = alloca %"class.lean::to_lcnf_fn", align 8
  %11 = alloca ptr, align 8
  %12 = alloca i32, align 4
  store ptr %0, ptr %5, align 8
  store ptr %1, ptr %6, align 8, !tbaa !13
  store ptr %2, ptr %7, align 8, !tbaa !15
  store ptr %3, ptr %8, align 8, !tbaa !17
  call void @llvm.lifetime.start.p0(i64 8, ptr %9) #15
  %13 = load ptr, ptr %6, align 8, !tbaa !13
  %14 = load ptr, ptr %8, align 8, !tbaa !17
  call void @_ZN4lean17unfold_macro_defsERKNS_16elab_environmentERKNS_4exprE(ptr dead_on_unwind writable sret(%"class.lean::expr") align 8 %9, ptr noundef nonnull align 8 dereferenceable(8) %13, ptr noundef nonnull align 8 dereferenceable(8) %14)
  call void @llvm.lifetime.start.p0(i64 584, ptr %10) #15
  %15 = load ptr, ptr %6, align 8, !tbaa !13
  %16 = load ptr, ptr %7, align 8, !tbaa !15
  invoke void @_ZN4lean10to_lcnf_fnC2ERKNS_16elab_environmentERKNS_9local_ctxE(ptr noundef nonnull align 8 dereferenceable(580) %10, ptr noundef nonnull align 8 dereferenceable(8) %15, ptr noundef nonnull align 8 dereferenceable(8) %16)
          to label %17 unwind label %19

17:                                               ; preds = %4
  invoke void @_ZN4lean10to_lcnf_fnclERKNS_4exprE(ptr dead_on_unwind writable sret(%"class.lean::expr") align 8 %0, ptr noundef nonnull align 8 dereferenceable(580) %10, ptr noundef nonnull align 8 dereferenceable(8) %9)
          to label %18 unwind label %23

18:                                               ; preds = %17
  call void @_ZN4lean10to_lcnf_fnD2Ev(ptr noundef nonnull align 8 dereferenceable(580) %10) #15
  call void @llvm.lifetime.end.p0(i64 584, ptr %10) #15
  call void @_ZN4lean10object_refD2Ev(ptr noundef nonnull align 8 dereferenceable(8) %9) #15
  call void @llvm.lifetime.end.p0(i64 8, ptr %9) #15
  ret void

19:                                               ; preds = %4
  %20 = landingpad { ptr, i32 }
          cleanup
  %21 = extractvalue { ptr, i32 } %20, 0
  store ptr %21, ptr %11, align 8
  %22 = extractvalue { ptr, i32 } %20, 1
  store i32 %22, ptr %12, align 4
  br label %27

23:                                               ; preds = %17
  %24 = landingpad { ptr, i32 }
          cleanup
  %25 = extractvalue { ptr, i32 } %24, 0
  store ptr %25, ptr %11, align 8
  %26 = extractvalue { ptr, i32 } %24, 1
  store i32 %26, ptr %12, align 4
  call void @_ZN4lean10to_lcnf_fnD2Ev(ptr noundef nonnull align 8 dereferenceable(580) %10) #15
  br label %27

27:                                               ; preds = %23, %19
  call void @llvm.lifetime.end.p0(i64 584, ptr %10) #15
  call void @_ZN4lean10object_refD2Ev(ptr noundef nonnull align 8 dereferenceable(8) %9) #15
  call void @llvm.lifetime.end.p0(i64 8, ptr %9) #15
  br label %28

28:                                               ; preds = %27
  %29 = load ptr, ptr %11, align 8
  %30 = load i32, ptr %12, align 4
  %31 = insertvalue { ptr, i32 } poison, ptr %29, 0
  %32 = insertvalue { ptr, i32 } %31, i32 %30, 1
  resume { ptr, i32 } %32
}