; Function Attrs: mustprogress uwtable
define hidden void @_ZN4lean12to_lcnf_coreERKNS_16elab_environmentERKNS_9local_ctxERKNS_4exprE(ptr dead_on_unwind noalias writable sret(%"class.lean::expr") align 8 %0, ptr noundef nonnull align 8 dereferenceable(8) %1, ptr noundef nonnull align 8 dereferenceable(8) %2, ptr noundef nonnull align 8 dereferenceable(8) %3) local_unnamed_addr #0 personality ptr @__gxx_personality_v0 {
  %5 = alloca %"class.lean::expr", align 8
  %6 = alloca %"class.lean::to_lcnf_fn", align 8
  call void @llvm.lifetime.start.p0(i64 8, ptr nonnull %5) #17
  call void @_ZN4lean17unfold_macro_defsERKNS_16elab_environmentERKNS_4exprE(ptr dead_on_unwind nonnull writable sret(%"class.lean::expr") align 8 %5, ptr noundef nonnull align 8 dereferenceable(8) %1, ptr noundef nonnull align 8 dereferenceable(8) %3)
  call void @llvm.lifetime.start.p0(i64 584, ptr nonnull %6) #17
  invoke void @_ZN4lean10to_lcnf_fnC2ERKNS_16elab_environmentERKNS_9local_ctxE(ptr noundef nonnull align 8 dereferenceable(580) %6, ptr noundef nonnull align 8 dereferenceable(8) %1, ptr noundef nonnull align 8 dereferenceable(8) %2)
          to label %7 unwind label %22

7:                                                ; preds = %4
  invoke void @_ZN4lean10to_lcnf_fnclERKNS_4exprE(ptr dead_on_unwind writable sret(%"class.lean::expr") align 8 %0, ptr noundef nonnull align 8 dereferenceable(580) %6, ptr noundef nonnull align 8 dereferenceable(8) %5)
          to label %8 unwind label %24

8:                                                ; preds = %7
  call void @_ZN4lean10to_lcnf_fnD2Ev(ptr noundef nonnull align 8 dereferenceable(580) %6) #17
  call void @llvm.lifetime.end.p0(i64 584, ptr nonnull %6) #17
  %9 = load ptr, ptr %5, align 8, !tbaa !3
  %10 = ptrtoint ptr %9 to i64
  %11 = and i64 %10, 1
  %.not.i.i = icmp eq i64 %11, 0
  br i1 %.not.i.i, label %12, label %_ZN4lean10object_refD2Ev.exit

12:                                               ; preds = %8
  %13 = load i32, ptr %9, align 4, !tbaa !8
  %14 = icmp sgt i32 %13, 1
  br i1 %14, label %15, label %17, !prof !11

15:                                               ; preds = %12
  %16 = add nsw i32 %13, -1
  store i32 %16, ptr %9, align 4, !tbaa !8
  br label %_ZN4lean10object_refD2Ev.exit

17:                                               ; preds = %12
  %.not.i.i.i = icmp eq i32 %13, 0
  br i1 %.not.i.i.i, label %_ZN4lean10object_refD2Ev.exit, label %18

18:                                               ; preds = %17
  invoke void @lean_dec_ref_cold(ptr noundef nonnull %9)
          to label %_ZN4lean10object_refD2Ev.exit unwind label %19

19:                                               ; preds = %18
  %20 = landingpad { ptr, i32 }
          catch ptr null
  %21 = extractvalue { ptr, i32 } %20, 0
  call void @__clang_call_terminate(ptr %21) #18
  unreachable

_ZN4lean10object_refD2Ev.exit:                    ; preds = %8, %15, %17, %18
  call void @llvm.lifetime.end.p0(i64 8, ptr nonnull %5) #17
  ret void

22:                                               ; preds = %4
  %23 = landingpad { ptr, i32 }
          cleanup
  br label %26

24:                                               ; preds = %7
  %25 = landingpad { ptr, i32 }
          cleanup
  call void @_ZN4lean10to_lcnf_fnD2Ev(ptr noundef nonnull align 8 dereferenceable(580) %6) #17
  br label %26

26:                                               ; preds = %24, %22
  %.pn = phi { ptr, i32 } [ %25, %24 ], [ %23, %22 ]
  call void @llvm.lifetime.end.p0(i64 584, ptr nonnull %6) #17
  call void @_ZN4lean10object_refD2Ev(ptr noundef nonnull align 8 dereferenceable(8) %5) #17
  call void @llvm.lifetime.end.p0(i64 8, ptr nonnull %5) #17
  resume { ptr, i32 } %.pn
}